(lp0
S'bbs.qyer.com/forum-18-1.html'
p1
aS'bbs.qyer.com/forum-18-2.html'
p2
aS'bbs.qyer.com/forum-18-3.html'
p3
aS'bbs.qyer.com/forum-18-4.html'
p4
aS'bbs.qyer.com/forum-18-5.html'
p5
aS'bbs.qyer.com/forum-18-6.html'
p6
aS'bbs.qyer.com/forum-18-7.html'
p7
aS'bbs.qyer.com/forum-18-8.html'
p8
aS'bbs.qyer.com/forum-18-9.html'
p9
aS'bbs.qyer.com/forum-18-10.html'
p10
aS'bbs.qyer.com/forum-18-11.html'
p11
aS'bbs.qyer.com/forum-18-12.html'
p12
aS'bbs.qyer.com/forum-18-13.html'
p13
aS'bbs.qyer.com/forum-18-14.html'
p14
aS'bbs.qyer.com/forum-18-15.html'
p15
aS'bbs.qyer.com/forum-18-16.html'
p16
aS'bbs.qyer.com/forum-18-17.html'
p17
aS'bbs.qyer.com/forum-18-18.html'
p18
aS'bbs.qyer.com/forum-18-19.html'
p19
aS'bbs.qyer.com/forum-18-20.html'
p20
aS'bbs.qyer.com/forum-18-21.html'
p21
aS'bbs.qyer.com/forum-18-22.html'
p22
aS'bbs.qyer.com/forum-18-23.html'
p23
aS'bbs.qyer.com/forum-18-24.html'
p24
aS'bbs.qyer.com/forum-18-25.html'
p25
aS'bbs.qyer.com/forum-18-26.html'
p26
aS'bbs.qyer.com/forum-18-27.html'
p27
aS'bbs.qyer.com/forum-18-28.html'
p28
aS'bbs.qyer.com/forum-18-29.html'
p29
aS'bbs.qyer.com/forum-18-30.html'
p30
aS'bbs.qyer.com/forum-18-31.html'
p31
aS'bbs.qyer.com/forum-18-32.html'
p32
aS'bbs.qyer.com/forum-18-33.html'
p33
aS'bbs.qyer.com/forum-18-34.html'
p34
aS'bbs.qyer.com/forum-18-35.html'
p35
aS'bbs.qyer.com/forum-18-36.html'
p36
aS'bbs.qyer.com/forum-18-37.html'
p37
aS'bbs.qyer.com/forum-18-38.html'
p38
aS'bbs.qyer.com/forum-18-39.html'
p39
aS'bbs.qyer.com/forum-18-40.html'
p40
aS'bbs.qyer.com/forum-18-41.html'
p41
aS'bbs.qyer.com/forum-18-42.html'
p42
aS'bbs.qyer.com/forum-18-43.html'
p43
aS'bbs.qyer.com/forum-18-44.html'
p44
aS'bbs.qyer.com/forum-18-45.html'
p45
aS'bbs.qyer.com/forum-18-46.html'
p46
aS'bbs.qyer.com/forum-18-47.html'
p47
aS'bbs.qyer.com/forum-18-48.html'
p48
aS'bbs.qyer.com/forum-18-49.html'
p49
aS'bbs.qyer.com/forum-18-50.html'
p50
aS'bbs.qyer.com/forum-18-51.html'
p51
aS'bbs.qyer.com/forum-18-52.html'
p52
aS'bbs.qyer.com/forum-18-53.html'
p53
aS'bbs.qyer.com/forum-18-54.html'
p54
aS'bbs.qyer.com/forum-18-55.html'
p55
aS'bbs.qyer.com/forum-18-56.html'
p56
aS'bbs.qyer.com/forum-18-57.html'
p57
aS'bbs.qyer.com/forum-18-58.html'
p58
aS'bbs.qyer.com/forum-18-59.html'
p59
aS'bbs.qyer.com/forum-18-60.html'
p60
aS'bbs.qyer.com/forum-18-61.html'
p61
aS'bbs.qyer.com/forum-18-62.html'
p62
aS'bbs.qyer.com/forum-18-63.html'
p63
aS'bbs.qyer.com/forum-18-64.html'
p64
aS'bbs.qyer.com/forum-18-65.html'
p65
aS'bbs.qyer.com/forum-18-66.html'
p66
aS'bbs.qyer.com/forum-18-67.html'
p67
aS'bbs.qyer.com/forum-18-68.html'
p68
aS'bbs.qyer.com/forum-18-69.html'
p69
aS'bbs.qyer.com/forum-18-70.html'
p70
aS'bbs.qyer.com/forum-18-71.html'
p71
aS'bbs.qyer.com/forum-18-72.html'
p72
aS'bbs.qyer.com/forum-18-73.html'
p73
aS'bbs.qyer.com/forum-18-74.html'
p74
aS'bbs.qyer.com/forum-18-75.html'
p75
aS'bbs.qyer.com/forum-18-76.html'
p76
aS'bbs.qyer.com/forum-18-77.html'
p77
aS'bbs.qyer.com/forum-18-78.html'
p78
aS'bbs.qyer.com/forum-18-79.html'
p79
aS'bbs.qyer.com/forum-18-80.html'
p80
aS'bbs.qyer.com/forum-18-81.html'
p81
aS'bbs.qyer.com/forum-18-82.html'
p82
aS'bbs.qyer.com/forum-18-83.html'
p83
aS'bbs.qyer.com/forum-18-84.html'
p84
aS'bbs.qyer.com/forum-18-85.html'
p85
aS'bbs.qyer.com/forum-18-86.html'
p86
aS'bbs.qyer.com/forum-18-87.html'
p87
aS'bbs.qyer.com/forum-18-88.html'
p88
aS'bbs.qyer.com/forum-18-89.html'
p89
aS'bbs.qyer.com/forum-18-90.html'
p90
aS'bbs.qyer.com/forum-18-91.html'
p91
aS'bbs.qyer.com/forum-18-92.html'
p92
aS'bbs.qyer.com/forum-18-93.html'
p93
aS'bbs.qyer.com/forum-18-94.html'
p94
aS'bbs.qyer.com/forum-18-95.html'
p95
aS'bbs.qyer.com/forum-18-96.html'
p96
aS'bbs.qyer.com/forum-18-97.html'
p97
aS'bbs.qyer.com/forum-18-98.html'
p98
aS'bbs.qyer.com/forum-18-99.html'
p99
aS'bbs.qyer.com/forum-18-100.html'
p100
aS'bbs.qyer.com/forum-18-101.html'
p101
aS'bbs.qyer.com/forum-18-102.html'
p102
aS'bbs.qyer.com/forum-18-103.html'
p103
aS'bbs.qyer.com/forum-18-104.html'
p104
aS'bbs.qyer.com/forum-18-105.html'
p105
aS'bbs.qyer.com/forum-18-106.html'
p106
aS'bbs.qyer.com/forum-18-107.html'
p107
aS'bbs.qyer.com/forum-18-108.html'
p108
aS'bbs.qyer.com/forum-18-109.html'
p109
aS'bbs.qyer.com/forum-18-110.html'
p110
aS'bbs.qyer.com/forum-18-111.html'
p111
aS'bbs.qyer.com/forum-18-112.html'
p112
aS'bbs.qyer.com/forum-18-113.html'
p113
aS'bbs.qyer.com/forum-18-114.html'
p114
aS'bbs.qyer.com/forum-18-115.html'
p115
aS'bbs.qyer.com/forum-18-116.html'
p116
aS'bbs.qyer.com/forum-18-117.html'
p117
aS'bbs.qyer.com/forum-18-118.html'
p118
aS'bbs.qyer.com/forum-18-119.html'
p119
aS'bbs.qyer.com/forum-18-120.html'
p120
aS'bbs.qyer.com/forum-18-121.html'
p121
aS'bbs.qyer.com/forum-18-122.html'
p122
aS'bbs.qyer.com/forum-18-123.html'
p123
aS'bbs.qyer.com/forum-18-124.html'
p124
aS'bbs.qyer.com/forum-18-125.html'
p125
aS'bbs.qyer.com/forum-18-126.html'
p126
aS'bbs.qyer.com/forum-18-127.html'
p127
aS'bbs.qyer.com/forum-18-128.html'
p128
aS'bbs.qyer.com/forum-18-129.html'
p129
aS'bbs.qyer.com/forum-18-130.html'
p130
aS'bbs.qyer.com/forum-18-131.html'
p131
aS'bbs.qyer.com/forum-18-132.html'
p132
aS'bbs.qyer.com/forum-18-133.html'
p133
aS'bbs.qyer.com/forum-18-134.html'
p134
aS'bbs.qyer.com/forum-18-135.html'
p135
aS'bbs.qyer.com/forum-18-136.html'
p136
aS'bbs.qyer.com/forum-18-137.html'
p137
aS'bbs.qyer.com/forum-18-138.html'
p138
aS'bbs.qyer.com/forum-18-139.html'
p139
aS'bbs.qyer.com/forum-18-140.html'
p140
aS'bbs.qyer.com/forum-18-141.html'
p141
aS'bbs.qyer.com/forum-18-142.html'
p142
aS'bbs.qyer.com/forum-18-143.html'
p143
aS'bbs.qyer.com/forum-18-144.html'
p144
aS'bbs.qyer.com/forum-18-145.html'
p145
aS'bbs.qyer.com/forum-18-146.html'
p146
aS'bbs.qyer.com/forum-18-147.html'
p147
aS'bbs.qyer.com/forum-18-148.html'
p148
aS'bbs.qyer.com/forum-18-149.html'
p149
aS'bbs.qyer.com/forum-18-150.html'
p150
aS'bbs.qyer.com/forum-18-151.html'
p151
aS'bbs.qyer.com/forum-18-152.html'
p152
aS'bbs.qyer.com/forum-18-153.html'
p153
aS'bbs.qyer.com/forum-18-154.html'
p154
aS'bbs.qyer.com/forum-18-155.html'
p155
aS'bbs.qyer.com/forum-18-156.html'
p156
aS'bbs.qyer.com/forum-18-157.html'
p157
aS'bbs.qyer.com/forum-18-158.html'
p158
aS'bbs.qyer.com/forum-18-159.html'
p159
aS'bbs.qyer.com/forum-18-160.html'
p160
aS'bbs.qyer.com/forum-18-161.html'
p161
aS'bbs.qyer.com/forum-18-162.html'
p162
aS'bbs.qyer.com/forum-18-163.html'
p163
aS'bbs.qyer.com/forum-18-164.html'
p164
aS'bbs.qyer.com/forum-18-165.html'
p165
aS'bbs.qyer.com/forum-18-166.html'
p166
aS'bbs.qyer.com/forum-18-167.html'
p167
aS'bbs.qyer.com/forum-18-168.html'
p168
aS'bbs.qyer.com/forum-18-169.html'
p169
aS'bbs.qyer.com/forum-18-170.html'
p170
aS'bbs.qyer.com/forum-18-171.html'
p171
aS'bbs.qyer.com/forum-18-172.html'
p172
aS'bbs.qyer.com/forum-18-173.html'
p173
aS'bbs.qyer.com/forum-18-174.html'
p174
aS'bbs.qyer.com/forum-18-175.html'
p175
aS'bbs.qyer.com/forum-18-176.html'
p176
aS'bbs.qyer.com/forum-18-177.html'
p177
aS'bbs.qyer.com/forum-18-178.html'
p178
aS'bbs.qyer.com/forum-18-179.html'
p179
aS'bbs.qyer.com/forum-18-180.html'
p180
aS'bbs.qyer.com/forum-18-181.html'
p181
aS'bbs.qyer.com/forum-18-182.html'
p182
aS'bbs.qyer.com/forum-18-183.html'
p183
aS'bbs.qyer.com/forum-18-184.html'
p184
aS'bbs.qyer.com/forum-18-185.html'
p185
aS'bbs.qyer.com/forum-18-186.html'
p186
aS'bbs.qyer.com/forum-18-187.html'
p187
aS'bbs.qyer.com/forum-18-188.html'
p188
aS'bbs.qyer.com/forum-18-189.html'
p189
aS'bbs.qyer.com/forum-18-190.html'
p190
aS'bbs.qyer.com/forum-18-191.html'
p191
aS'bbs.qyer.com/forum-18-192.html'
p192
aS'bbs.qyer.com/forum-18-193.html'
p193
aS'bbs.qyer.com/forum-18-194.html'
p194
aS'bbs.qyer.com/forum-18-195.html'
p195
aS'bbs.qyer.com/forum-18-196.html'
p196
aS'bbs.qyer.com/forum-18-197.html'
p197
aS'bbs.qyer.com/forum-18-198.html'
p198
aS'bbs.qyer.com/forum-18-199.html'
p199
aS'bbs.qyer.com/forum-18-200.html'
p200
aS'bbs.qyer.com/forum-18-201.html'
p201
aS'bbs.qyer.com/forum-18-202.html'
p202
aS'bbs.qyer.com/forum-18-203.html'
p203
aS'bbs.qyer.com/forum-18-204.html'
p204
aS'bbs.qyer.com/forum-18-205.html'
p205
aS'bbs.qyer.com/forum-18-206.html'
p206
aS'bbs.qyer.com/forum-18-207.html'
p207
aS'bbs.qyer.com/forum-18-208.html'
p208
aS'bbs.qyer.com/forum-18-209.html'
p209
aS'bbs.qyer.com/forum-18-210.html'
p210
aS'bbs.qyer.com/forum-18-211.html'
p211
aS'bbs.qyer.com/forum-18-212.html'
p212
aS'bbs.qyer.com/forum-18-213.html'
p213
aS'bbs.qyer.com/forum-18-214.html'
p214
aS'bbs.qyer.com/forum-18-215.html'
p215
aS'bbs.qyer.com/forum-18-216.html'
p216
aS'bbs.qyer.com/forum-18-217.html'
p217
aS'bbs.qyer.com/forum-18-218.html'
p218
aS'bbs.qyer.com/forum-18-219.html'
p219
aS'bbs.qyer.com/forum-18-220.html'
p220
aS'bbs.qyer.com/forum-18-221.html'
p221
aS'bbs.qyer.com/forum-18-222.html'
p222
aS'bbs.qyer.com/forum-18-223.html'
p223
aS'bbs.qyer.com/forum-18-224.html'
p224
aS'bbs.qyer.com/forum-18-225.html'
p225
aS'bbs.qyer.com/forum-18-226.html'
p226
aS'bbs.qyer.com/forum-18-227.html'
p227
aS'bbs.qyer.com/forum-18-228.html'
p228
aS'bbs.qyer.com/forum-18-229.html'
p229
aS'bbs.qyer.com/forum-18-230.html'
p230
aS'bbs.qyer.com/forum-18-231.html'
p231
aS'bbs.qyer.com/forum-18-232.html'
p232
aS'bbs.qyer.com/forum-18-233.html'
p233
aS'bbs.qyer.com/forum-18-234.html'
p234
aS'bbs.qyer.com/forum-18-235.html'
p235
aS'bbs.qyer.com/forum-18-236.html'
p236
aS'bbs.qyer.com/forum-18-237.html'
p237
aS'bbs.qyer.com/forum-18-238.html'
p238
aS'bbs.qyer.com/forum-18-239.html'
p239
aS'bbs.qyer.com/forum-18-240.html'
p240
aS'bbs.qyer.com/forum-18-241.html'
p241
aS'bbs.qyer.com/forum-18-242.html'
p242
aS'bbs.qyer.com/forum-18-243.html'
p243
aS'bbs.qyer.com/forum-18-244.html'
p244
aS'bbs.qyer.com/forum-18-245.html'
p245
aS'bbs.qyer.com/forum-18-246.html'
p246
aS'bbs.qyer.com/forum-18-247.html'
p247
aS'bbs.qyer.com/forum-18-248.html'
p248
aS'bbs.qyer.com/forum-18-249.html'
p249
aS'bbs.qyer.com/forum-18-250.html'
p250
aS'bbs.qyer.com/forum-18-251.html'
p251
aS'bbs.qyer.com/forum-18-252.html'
p252
aS'bbs.qyer.com/forum-18-253.html'
p253
aS'bbs.qyer.com/forum-18-254.html'
p254
aS'bbs.qyer.com/forum-18-255.html'
p255
aS'bbs.qyer.com/forum-18-256.html'
p256
aS'bbs.qyer.com/forum-18-257.html'
p257
aS'bbs.qyer.com/forum-18-258.html'
p258
aS'bbs.qyer.com/forum-18-259.html'
p259
aS'bbs.qyer.com/forum-18-260.html'
p260
aS'bbs.qyer.com/forum-18-261.html'
p261
aS'bbs.qyer.com/forum-18-262.html'
p262
aS'bbs.qyer.com/forum-18-263.html'
p263
aS'bbs.qyer.com/forum-18-264.html'
p264
aS'bbs.qyer.com/forum-18-265.html'
p265
aS'bbs.qyer.com/forum-18-266.html'
p266
aS'bbs.qyer.com/forum-18-267.html'
p267
aS'bbs.qyer.com/forum-18-268.html'
p268
aS'bbs.qyer.com/forum-18-269.html'
p269
aS'bbs.qyer.com/forum-18-270.html'
p270
aS'bbs.qyer.com/forum-18-271.html'
p271
aS'bbs.qyer.com/forum-18-272.html'
p272
aS'bbs.qyer.com/forum-18-273.html'
p273
aS'bbs.qyer.com/forum-18-274.html'
p274
aS'bbs.qyer.com/forum-18-275.html'
p275
aS'bbs.qyer.com/forum-18-276.html'
p276
aS'bbs.qyer.com/forum-18-277.html'
p277
aS'bbs.qyer.com/forum-18-278.html'
p278
aS'bbs.qyer.com/forum-18-279.html'
p279
aS'bbs.qyer.com/forum-18-280.html'
p280
aS'bbs.qyer.com/forum-18-281.html'
p281
aS'bbs.qyer.com/forum-18-282.html'
p282
aS'bbs.qyer.com/forum-18-283.html'
p283
aS'bbs.qyer.com/forum-18-284.html'
p284
aS'bbs.qyer.com/forum-18-285.html'
p285
aS'bbs.qyer.com/forum-18-286.html'
p286
aS'bbs.qyer.com/forum-18-287.html'
p287
aS'bbs.qyer.com/forum-18-288.html'
p288
aS'bbs.qyer.com/forum-18-289.html'
p289
aS'bbs.qyer.com/forum-18-290.html'
p290
aS'bbs.qyer.com/forum-18-291.html'
p291
aS'bbs.qyer.com/forum-18-292.html'
p292
aS'bbs.qyer.com/forum-18-293.html'
p293
aS'bbs.qyer.com/forum-18-294.html'
p294
aS'bbs.qyer.com/forum-18-295.html'
p295
aS'bbs.qyer.com/forum-18-296.html'
p296
aS'bbs.qyer.com/forum-18-297.html'
p297
aS'bbs.qyer.com/forum-18-298.html'
p298
aS'bbs.qyer.com/forum-18-299.html'
p299
aS'bbs.qyer.com/forum-18-300.html'
p300
aS'bbs.qyer.com/forum-18-301.html'
p301
aS'bbs.qyer.com/forum-18-302.html'
p302
aS'bbs.qyer.com/forum-18-303.html'
p303
aS'bbs.qyer.com/forum-18-304.html'
p304
aS'bbs.qyer.com/forum-18-305.html'
p305
aS'bbs.qyer.com/forum-18-306.html'
p306
aS'bbs.qyer.com/forum-18-307.html'
p307
aS'bbs.qyer.com/forum-18-308.html'
p308
aS'bbs.qyer.com/forum-18-309.html'
p309
aS'bbs.qyer.com/forum-18-310.html'
p310
aS'bbs.qyer.com/forum-18-311.html'
p311
aS'bbs.qyer.com/forum-18-312.html'
p312
aS'bbs.qyer.com/forum-18-313.html'
p313
aS'bbs.qyer.com/forum-18-314.html'
p314
aS'bbs.qyer.com/forum-18-315.html'
p315
aS'bbs.qyer.com/forum-18-316.html'
p316
aS'bbs.qyer.com/forum-18-317.html'
p317
aS'bbs.qyer.com/forum-18-318.html'
p318
aS'bbs.qyer.com/forum-18-319.html'
p319
aS'bbs.qyer.com/forum-18-320.html'
p320
aS'bbs.qyer.com/forum-18-321.html'
p321
aS'bbs.qyer.com/forum-18-322.html'
p322
aS'bbs.qyer.com/forum-18-323.html'
p323
aS'bbs.qyer.com/forum-18-324.html'
p324
aS'bbs.qyer.com/forum-18-325.html'
p325
aS'bbs.qyer.com/forum-18-326.html'
p326
aS'bbs.qyer.com/forum-18-327.html'
p327
aS'bbs.qyer.com/forum-18-328.html'
p328
aS'bbs.qyer.com/forum-18-329.html'
p329
aS'bbs.qyer.com/forum-18-330.html'
p330
aS'bbs.qyer.com/forum-18-331.html'
p331
aS'bbs.qyer.com/forum-18-332.html'
p332
aS'bbs.qyer.com/forum-18-333.html'
p333
aS'bbs.qyer.com/forum-18-334.html'
p334
aS'bbs.qyer.com/forum-18-335.html'
p335
aS'bbs.qyer.com/forum-18-336.html'
p336
aS'bbs.qyer.com/forum-18-337.html'
p337
aS'bbs.qyer.com/forum-18-338.html'
p338
aS'bbs.qyer.com/forum-18-339.html'
p339
aS'bbs.qyer.com/forum-18-340.html'
p340
aS'bbs.qyer.com/forum-18-341.html'
p341
aS'bbs.qyer.com/forum-18-342.html'
p342
aS'bbs.qyer.com/forum-18-343.html'
p343
aS'bbs.qyer.com/forum-18-344.html'
p344
aS'bbs.qyer.com/forum-18-345.html'
p345
aS'bbs.qyer.com/forum-18-346.html'
p346
aS'bbs.qyer.com/forum-18-347.html'
p347
aS'bbs.qyer.com/forum-18-348.html'
p348
aS'bbs.qyer.com/forum-18-349.html'
p349
aS'bbs.qyer.com/forum-18-350.html'
p350
a.