(lp0
Vthread-62872-1.html
p1
aVthread-62838-1.html
p2
aVthread-963671-1.html
p3
aVthread-899624-1.html
p4
aVthread-765683-1.html
p5
aVthread-854223-1.html
p6
aVthread-978880-1.html
p7
aVthread-772966-1.html
p8
aVthread-971884-1.html
p9
aVthread-956291-1.html
p10
aVthread-353595-1.html
p11
aVthread-939190-1.html
p12
aVthread-898380-1.html
p13
aVthread-933961-1.html
p14
aVthread-946863-1.html
p15
aVthread-770871-1.html
p16
aVthread-978762-1.html
p17
aVthread-978759-1.html
p18
aVthread-978758-1.html
p19
aVthread-845955-1.html
p20
aVthread-887275-1.html
p21
aVthread-961888-1.html
p22
aVthread-888480-1.html
p23
aVthread-976898-1.html
p24
aVthread-978697-1.html
p25
aVthread-956481-1.html
p26
aVthread-976523-1.html
p27
aVthread-918500-1.html
p28
aVthread-961929-1.html
p29
aVthread-962425-1.html
p30
a.